target datalayout = "e-m:e-p270:32:32-p271:32:32-p272:64:64-i64:64-i128:128-f80:128-n8:16:32:64-S128"
target triple = "x86_64-pc-linux-gnu"

%struct.AVChannelLayout = type { i32, i32, %union.anon, ptr }
%union.anon = type { i64 }
%struct.AVCodecContext = type { ptr, i32, i32, ptr, i32, i32, ptr, ptr, ptr, i64, i32, i32, ptr, i32, %struct.AVRational, %struct.AVRational, %struct.AVRational, i32, i32, i32, i32, i32, %struct.AVRational, i32, i32, i32, i32, i32, i32, i32, i32, i32, i32, i32, ptr, ptr, i32, float, float, float, float, float, float, float, float, float, i32, i32, i32, i32, i32, i32, i32, i32, i32, i32, i32, i32, ptr, ptr, ptr, i32, i32, i32, i32, i32, i32, i32, i32, i32, i32, %struct.AVChannelLayout, i32, i32, i32, i32, i32, i32, i32, i32, ptr, i32, i32, i32, float, float, i32, i32, i32, i32, i32, ptr, i64, i64, float, float, i32, i32, ptr, ptr, i32, i32, i32, i32, i32, ptr, ptr, ptr, ptr, i32, i32, [8 x i64], i32, i32, i32, i32, i32, i32, i32, ptr, ptr, i32, i32, i32, i32, i32, i32, i32, i32, i32, i32, ptr, ptr, i32, i32, ptr, ptr, ptr, ptr, i32, i32, i64, i32, i32, i64, ptr, i64, ptr, i32, ptr, i32 }
%struct.AVRational = type { i32, i32 }
%struct.AC3EncodeContext = type { ptr, %struct.AC3EncOptions, ptr, %struct.AudioDSPContext, ptr, %struct.MECmpContext, %struct.AC3DSPContext, ptr, ptr, [6 x %struct.AC3Block], i32, i32, i32, i32, i32, i32, i32, i32, i32, i32, i32, [2 x i16], i64, i64, i32, i32, i32, i32, i32, i32, i32, ptr, i32, i32, i32, i32, i32, i32, i32, i32, [7 x i32], i32, i32, i32, i32, i32, [18 x i8], i32, i32, i32, i32, i32, i32, %struct.AC3BitAllocParameters, i32, [7 x i32], [7 x i32], i32, i32, i32, [6 x ptr], ptr, ptr, ptr, ptr, ptr, ptr, ptr, ptr, ptr, ptr, ptr, [7 x [6 x i8]], [7 x i8], i32, [7 x [6 x i8]], [7 x [6 x ptr]], i32, ptr, ptr, %union.anon.0, %union.anon.1 }
%struct.AC3EncOptions = type { i32, i32, float, float, i32, i32, i32, i32, i32, i32, i32, i32, float, float, float, float, i32, i32, i32, i32, i32, i32, i32, i32, i32, i32 }
%struct.AudioDSPContext = type { ptr, ptr, ptr }
%struct.MECmpContext = type { ptr, [6 x ptr], [6 x ptr], [6 x ptr], [6 x ptr], [6 x ptr], [6 x ptr], [6 x ptr], [6 x ptr], [6 x ptr], [6 x ptr], [6 x ptr], [6 x ptr], [6 x ptr], [6 x ptr], [2 x [4 x ptr]], [6 x ptr] }
%struct.AC3DSPContext = type { ptr, ptr, ptr, ptr, ptr, ptr, ptr, ptr, i32, i32, ptr, ptr }
%struct.AC3Block = type { [7 x ptr], [7 x ptr], [7 x ptr], [7 x ptr], [7 x ptr], [7 x ptr], [7 x ptr], [7 x ptr], [7 x ptr], [7 x ptr], i8, i32, [4 x i8], i32, i32, [7 x i8], i32, [7 x i8], [7 x i8], i32, i32, [7 x i32] }
%struct.AC3BitAllocParameters = type { i32, i32, i32, i32, i32, i32, i32, i32, i32 }
%union.anon.0 = type { [256 x float] }
%union.anon.1 = type { [512 x float] }

; Function Attrs: cold nounwind optsize uwtable
define i32 @ff_ac3_float_encode_init(ptr noundef %0) #0 {
  %2 = alloca i32, align 4
  %3 = alloca ptr, align 8
  %4 = alloca ptr, align 8
  %5 = alloca i32, align 4
  %6 = alloca i32, align 4
  store ptr %0, ptr %3, align 8, !tbaa !4
  call void @llvm.lifetime.start.p0(i64 8, ptr %4) #8
  %7 = load ptr, ptr %3, align 8, !tbaa !4
  %8 = getelementptr inbounds nuw %struct.AVCodecContext, ptr %7, i32 0, i32 6
  %9 = load ptr, ptr %8, align 8, !tbaa !9
  store ptr %9, ptr %4, align 8, !tbaa !29
  call void @llvm.lifetime.start.p0(i64 4, ptr %5) #8
  %10 = load ptr, ptr %4, align 8, !tbaa !29
  %11 = getelementptr inbounds nuw %struct.AC3EncodeContext, ptr %10, i32 0, i32 78
  store ptr @encode_frame, ptr %11, align 16, !tbaa !31
  %12 = load ptr, ptr %3, align 8, !tbaa !4
  %13 = getelementptr inbounds nuw %struct.AVCodecContext, ptr %12, i32 0, i32 10
  %14 = load i32, ptr %13, align 8, !tbaa !41
  %15 = and i32 %14, 8388608
  %16 = call ptr @avpriv_float_dsp_alloc(i32 noundef %15)
  %17 = load ptr, ptr %4, align 8, !tbaa !29
  %18 = getelementptr inbounds nuw %struct.AC3EncodeContext, ptr %17, i32 0, i32 4
  store ptr %16, ptr %18, align 16, !tbaa !42
  %19 = load ptr, ptr %4, align 8, !tbaa !29
  %20 = getelementptr inbounds nuw %struct.AC3EncodeContext, ptr %19, i32 0, i32 4
  %21 = load ptr, ptr %20, align 16, !tbaa !42
  %22 = icmp ne ptr %21, null
  br i1 %22, label %24, label %23

23:                                               ; preds = %1
  store i32 -12, ptr %2, align 4
  store i32 1, ptr %6, align 4
  br label %34

24:                                               ; preds = %1
  %25 = load ptr, ptr %4, align 8, !tbaa !29
  %26 = call i32 @ac3_float_mdct_init(ptr noundef %25) #9
  store i32 %26, ptr %5, align 4, !tbaa !43
  %27 = load i32, ptr %5, align 4, !tbaa !43
  %28 = icmp slt i32 %27, 0
  br i1 %28, label %29, label %31

29:                                               ; preds = %24
  %30 = load i32, ptr %5, align 4, !tbaa !43
  store i32 %30, ptr %2, align 4
  store i32 1, ptr %6, align 4
  br label %34

31:                                               ; preds = %24
  %32 = load ptr, ptr %3, align 8, !tbaa !4
  %33 = call i32 @ff_ac3_encode_init(ptr noundef %32)
  store i32 %33, ptr %2, align 4
  store i32 1, ptr %6, align 4
  br label %34

34:                                               ; preds = %31, %29, %23
  call void @llvm.lifetime.end.p0(i64 4, ptr %5) #8
  call void @llvm.lifetime.end.p0(i64 8, ptr %4) #8
  %35 = load i32, ptr %2, align 4
  ret i32 %35
}