; Function Attrs: cold nounwind optsize uwtable
define i32 @ff_ac3_float_encode_init(ptr noundef %0) #0 {
  %2 = getelementptr inbounds nuw i8, ptr %0, i64 32
  %3 = load ptr, ptr %2, align 8, !tbaa !4
  %4 = getelementptr inbounds nuw i8, ptr %3, i64 5856
  store ptr @encode_frame, ptr %4, align 16, !tbaa !27
  %5 = getelementptr inbounds nuw i8, ptr %0, i64 64
  %6 = load i32, ptr %5, align 8, !tbaa !38
  %7 = and i32 %6, 8388608
  %8 = tail call ptr @avpriv_float_dsp_alloc(i32 noundef %7) #8
  %9 = getelementptr inbounds nuw i8, ptr %3, i64 144
  store ptr %8, ptr %9, align 16, !tbaa !39
  %.not = icmp eq ptr %8, null
  br i1 %.not, label %15, label %10

10:                                               ; preds = %1
  %11 = tail call fastcc i32 @ac3_float_mdct_init(ptr noundef nonnull %3) #9
  %12 = icmp slt i32 %11, 0
  br i1 %12, label %15, label %13

13:                                               ; preds = %10
  %14 = tail call i32 @ff_ac3_encode_init(ptr noundef nonnull %0) #8
  br label %15

15:                                               ; preds = %10, %1, %13
  %.0 = phi i32 [ %14, %13 ], [ -12, %1 ], [ %11, %10 ]
  ret i32 %.0
}